target datalayout = "e-m:e-p270:32:32-p271:32:32-p272:64:64-i64:64-i128:128-f80:128-n8:16:32:64-S128"
target triple = "x86_64-pc-linux-gnu"

%struct.blockProperties_t = type { i32, i32 }
%struct.ZSTDv01_Dctx_s = type { [1025 x i32], [513 x i32], [1025 x i32], ptr, ptr, i64, i32, i32 }

; Function Attrs: nounwind uwtable
define internal i32 @ERR_isError(i64 noundef %0) #0 {
  %2 = alloca i64, align 8
  store i64 %0, ptr %2, align 8, !tbaa !3
  %3 = load i64, ptr %2, align 8, !tbaa !3
  %4 = icmp ugt i64 %3, -120
  %5 = zext i1 %4 to i32
  ret i32 %5
}

; Function Attrs: nounwind uwtable
define internal i64 @ZSTD_copyUncompressedBlock(ptr noundef %0, i64 noundef %1, ptr noundef %2, i64 noundef %3) #0 {
  %5 = alloca i64, align 8
  %6 = alloca ptr, align 8
  %7 = alloca i64, align 8
  %8 = alloca ptr, align 8
  %9 = alloca i64, align 8
  store ptr %0, ptr %6, align 8, !tbaa !7
  store i64 %1, ptr %7, align 8, !tbaa !3
  store ptr %2, ptr %8, align 8, !tbaa !7
  store i64 %3, ptr %9, align 8, !tbaa !3
  %10 = load i64, ptr %9, align 8, !tbaa !3
  %11 = load i64, ptr %7, align 8, !tbaa !3
  %12 = icmp ugt i64 %10, %11
  br i1 %12, label %13, label %14

13:                                               ; preds = %4
  store i64 -70, ptr %5, align 8
  br label %23

14:                                               ; preds = %4
  %15 = load i64, ptr %9, align 8, !tbaa !3
  %16 = icmp ugt i64 %15, 0
  br i1 %16, label %17, label %21

17:                                               ; preds = %14
  %18 = load ptr, ptr %6, align 8, !tbaa !7
  %19 = load ptr, ptr %8, align 8, !tbaa !7
  %20 = load i64, ptr %9, align 8, !tbaa !3
  call void @llvm.memcpy.p0.p0.i64(ptr align 1 %18, ptr align 1 %19, i64 %20, i1 false)
  br label %21

21:                                               ; preds = %17, %14
  %22 = load i64, ptr %9, align 8, !tbaa !3
  store i64 %22, ptr %5, align 8
  br label %23

23:                                               ; preds = %21, %13
  %24 = load i64, ptr %5, align 8
  ret i64 %24
}

; Function Attrs: nounwind uwtable
define i32 @ZSTDv01_isError(i64 noundef %0) #0 {
  %2 = alloca i64, align 8
  store i64 %0, ptr %2, align 8, !tbaa !3
  %3 = load i64, ptr %2, align 8, !tbaa !3
  %4 = call i32 @ERR_isError(i64 noundef %3)
  ret i32 %4
}

; Function Attrs: nounwind uwtable
define internal i64 @ZSTDv01_getcBlockSize(ptr noundef %0, i64 noundef %1, ptr noundef %2) #0 {
  %4 = alloca i64, align 8
  %5 = alloca ptr, align 8
  %6 = alloca i64, align 8
  %7 = alloca ptr, align 8
  %8 = alloca ptr, align 8
  %9 = alloca i8, align 1
  %10 = alloca i32, align 4
  %11 = alloca i32, align 4
  store ptr %0, ptr %5, align 8, !tbaa !7
  store i64 %1, ptr %6, align 8, !tbaa !3
  store ptr %2, ptr %7, align 8, !tbaa !7
  call void @llvm.lifetime.start.p0(i64 8, ptr %8) #8
  %12 = load ptr, ptr %5, align 8, !tbaa !7
  store ptr %12, ptr %8, align 8, !tbaa !9
  call void @llvm.lifetime.start.p0(i64 1, ptr %9) #8
  call void @llvm.lifetime.start.p0(i64 4, ptr %10) #8
  %13 = load i64, ptr %6, align 8, !tbaa !3
  %14 = icmp ult i64 %13, 3
  br i1 %14, label %15, label %16

15:                                               ; preds = %3
  store i64 -72, ptr %4, align 8
  store i32 1, ptr %11, align 4
  br label %66

16:                                               ; preds = %3
  %17 = load ptr, ptr %8, align 8, !tbaa !9
  %18 = load i8, ptr %17, align 1, !tbaa !15
  store i8 %18, ptr %9, align 1, !tbaa !15
  %19 = load ptr, ptr %8, align 8, !tbaa !9
  %20 = getelementptr inbounds i8, ptr %19, i64 2
  %21 = load i8, ptr %20, align 1, !tbaa !15
  %22 = zext i8 %21 to i32
  %23 = load ptr, ptr %8, align 8, !tbaa !9
  %24 = getelementptr inbounds i8, ptr %23, i64 1
  %25 = load i8, ptr %24, align 1, !tbaa !15
  %26 = zext i8 %25 to i32
  %27 = shl i32 %26, 8
  %28 = add nsw i32 %22, %27
  %29 = load ptr, ptr %8, align 8, !tbaa !9
  %30 = getelementptr inbounds i8, ptr %29, i64 0
  %31 = load i8, ptr %30, align 1, !tbaa !15
  %32 = zext i8 %31 to i32
  %33 = and i32 %32, 7
  %34 = shl i32 %33, 16
  %35 = add nsw i32 %28, %34
  store i32 %35, ptr %10, align 4, !tbaa !11
  %36 = load i8, ptr %9, align 1, !tbaa !15
  %37 = zext i8 %36 to i32
  %38 = ashr i32 %37, 6
  %39 = load ptr, ptr %7, align 8, !tbaa !7
  %40 = getelementptr inbounds nuw %struct.blockProperties_t, ptr %39, i32 0, i32 0
  store i32 %38, ptr %40, align 4, !tbaa !13
  %41 = load ptr, ptr %7, align 8, !tbaa !7
  %42 = getelementptr inbounds nuw %struct.blockProperties_t, ptr %41, i32 0, i32 0
  %43 = load i32, ptr %42, align 4, !tbaa !13
  %44 = icmp eq i32 %43, 2
  br i1 %44, label %45, label %47

45:                                               ; preds = %16
  %46 = load i32, ptr %10, align 4, !tbaa !11
  br label %48

47:                                               ; preds = %16
  br label %48

48:                                               ; preds = %47, %45
  %49 = phi i32 [ %46, %45 ], [ 0, %47 ]
  %50 = load ptr, ptr %7, align 8, !tbaa !7
  %51 = getelementptr inbounds nuw %struct.blockProperties_t, ptr %50, i32 0, i32 1
  store i32 %49, ptr %51, align 4, !tbaa !16
  %52 = load ptr, ptr %7, align 8, !tbaa !7
  %53 = getelementptr inbounds nuw %struct.blockProperties_t, ptr %52, i32 0, i32 0
  %54 = load i32, ptr %53, align 4, !tbaa !13
  %55 = icmp eq i32 %54, 3
  br i1 %55, label %56, label %57

56:                                               ; preds = %48
  store i64 0, ptr %4, align 8
  store i32 1, ptr %11, align 4
  br label %66

57:                                               ; preds = %48
  %58 = load ptr, ptr %7, align 8, !tbaa !7
  %59 = getelementptr inbounds nuw %struct.blockProperties_t, ptr %58, i32 0, i32 0
  %60 = load i32, ptr %59, align 4, !tbaa !13
  %61 = icmp eq i32 %60, 2
  br i1 %61, label %62, label %63

62:                                               ; preds = %57
  store i64 1, ptr %4, align 8
  store i32 1, ptr %11, align 4
  br label %66

63:                                               ; preds = %57
  %64 = load i32, ptr %10, align 4, !tbaa !11
  %65 = zext i32 %64 to i64
  store i64 %65, ptr %4, align 8
  store i32 1, ptr %11, align 4
  br label %66

66:                                               ; preds = %63, %62, %56, %15
  call void @llvm.lifetime.end.p0(i64 4, ptr %10) #8
  call void @llvm.lifetime.end.p0(i64 1, ptr %9) #8
  call void @llvm.lifetime.end.p0(i64 8, ptr %8) #8
  %67 = load i64, ptr %4, align 8
  ret i64 %67
}

; Function Attrs: nounwind uwtable
define internal i32 @ZSTD_readBE32(ptr noundef %0) #0 {
  %2 = alloca ptr, align 8
  %3 = alloca ptr, align 8
  store ptr %0, ptr %2, align 8, !tbaa !7
  call void @llvm.lifetime.start.p0(i64 8, ptr %3) #8
  %4 = load ptr, ptr %2, align 8, !tbaa !7
  store ptr %4, ptr %3, align 8, !tbaa !9
  %5 = load ptr, ptr %3, align 8, !tbaa !9
  %6 = getelementptr inbounds i8, ptr %5, i64 0
  %7 = load i8, ptr %6, align 1, !tbaa !15
  %8 = zext i8 %7 to i32
  %9 = shl i32 %8, 24
  %10 = load ptr, ptr %3, align 8, !tbaa !9
  %11 = getelementptr inbounds i8, ptr %10, i64 1
  %12 = load i8, ptr %11, align 1, !tbaa !15
  %13 = zext i8 %12 to i32
  %14 = shl i32 %13, 16
  %15 = add i32 %9, %14
  %16 = load ptr, ptr %3, align 8, !tbaa !9
  %17 = getelementptr inbounds i8, ptr %16, i64 2
  %18 = load i8, ptr %17, align 1, !tbaa !15
  %19 = zext i8 %18 to i32
  %20 = shl i32 %19, 8
  %21 = add i32 %15, %20
  %22 = load ptr, ptr %3, align 8, !tbaa !9
  %23 = getelementptr inbounds i8, ptr %22, i64 3
  %24 = load i8, ptr %23, align 1, !tbaa !15
  %25 = zext i8 %24 to i32
  %26 = shl i32 %25, 0
  %27 = add i32 %21, %26
  call void @llvm.lifetime.end.p0(i64 8, ptr %3) #8
  ret i32 %27
}

; Function Attrs: nounwind uwtable
define i64 @ZSTDv01_decompressContinue(ptr noundef %0, ptr noundef %1, i64 noundef %2, ptr noundef %3, i64 noundef %4) #0 {
  %6 = alloca i64, align 8
  %7 = alloca ptr, align 8
  %8 = alloca ptr, align 8
  %9 = alloca i64, align 8
  %10 = alloca ptr, align 8
  %11 = alloca i64, align 8
  %12 = alloca ptr, align 8
  %13 = alloca i32, align 4
  %14 = alloca i32, align 4
  %15 = alloca %struct.blockProperties_t, align 4
  %16 = alloca i64, align 8
  %17 = alloca i64, align 8
  store ptr %0, ptr %7, align 8, !tbaa !25
  store ptr %1, ptr %8, align 8, !tbaa !7
  store i64 %2, ptr %9, align 8, !tbaa !3
  store ptr %3, ptr %10, align 8, !tbaa !7
  store i64 %4, ptr %11, align 8, !tbaa !3
  call void @llvm.lifetime.start.p0(i64 8, ptr %12) #8
  %18 = load ptr, ptr %7, align 8, !tbaa !25
  store ptr %18, ptr %12, align 8, !tbaa !25
  %19 = load i64, ptr %11, align 8, !tbaa !3
  %20 = load ptr, ptr %12, align 8, !tbaa !25
  %21 = getelementptr inbounds nuw %struct.ZSTDv01_Dctx_s, ptr %20, i32 0, i32 5
  %22 = load i64, ptr %21, align 8, !tbaa !27
  %23 = icmp ne i64 %19, %22
  br i1 %23, label %24, label %25

24:                                               ; preds = %5
  store i64 -72, ptr %6, align 8
  store i32 1, ptr %13, align 4
  br label %124

25:                                               ; preds = %5
  %26 = load ptr, ptr %8, align 8, !tbaa !7
  %27 = load ptr, ptr %12, align 8, !tbaa !25
  %28 = getelementptr inbounds nuw %struct.ZSTDv01_Dctx_s, ptr %27, i32 0, i32 3
  %29 = load ptr, ptr %28, align 8, !tbaa !29
  %30 = icmp ne ptr %26, %29
  br i1 %30, label %31, label %35

31:                                               ; preds = %25
  %32 = load ptr, ptr %8, align 8, !tbaa !7
  %33 = load ptr, ptr %12, align 8, !tbaa !25
  %34 = getelementptr inbounds nuw %struct.ZSTDv01_Dctx_s, ptr %33, i32 0, i32 4
  store ptr %32, ptr %34, align 8, !tbaa !17
  br label %35

35:                                               ; preds = %31, %25
  %36 = load ptr, ptr %12, align 8, !tbaa !25
  %37 = getelementptr inbounds nuw %struct.ZSTDv01_Dctx_s, ptr %36, i32 0, i32 7
  %38 = load i32, ptr %37, align 4, !tbaa !28
  %39 = icmp eq i32 %38, 0
  br i1 %39, label %40, label %52

40:                                               ; preds = %35
  call void @llvm.lifetime.start.p0(i64 4, ptr %14) #8
  %41 = load ptr, ptr %10, align 8, !tbaa !7
  %42 = call i32 @ZSTD_readBE32(ptr noundef %41)
  store i32 %42, ptr %14, align 4, !tbaa !11
  %43 = load i32, ptr %14, align 4, !tbaa !11
  %44 = icmp ne i32 %43, -47205090
  br i1 %44, label %45, label %46

45:                                               ; preds = %40
  store i64 -10, ptr %6, align 8
  store i32 1, ptr %13, align 4
  br label %51

46:                                               ; preds = %40
  %47 = load ptr, ptr %12, align 8, !tbaa !25
  %48 = getelementptr inbounds nuw %struct.ZSTDv01_Dctx_s, ptr %47, i32 0, i32 7
  store i32 1, ptr %48, align 4, !tbaa !28
  %49 = load ptr, ptr %12, align 8, !tbaa !25
  %50 = getelementptr inbounds nuw %struct.ZSTDv01_Dctx_s, ptr %49, i32 0, i32 5
  store i64 3, ptr %50, align 8, !tbaa !27
  store i64 0, ptr %6, align 8
  store i32 1, ptr %13, align 4
  br label %51

51:                                               ; preds = %46, %45
  call void @llvm.lifetime.end.p0(i64 4, ptr %14) #8
  br label %124

52:                                               ; preds = %35
  %53 = load ptr, ptr %12, align 8, !tbaa !25
  %54 = getelementptr inbounds nuw %struct.ZSTDv01_Dctx_s, ptr %53, i32 0, i32 7
  %55 = load i32, ptr %54, align 4, !tbaa !28
  %56 = icmp eq i32 %55, 1
  br i1 %56, label %57, label %86

57:                                               ; preds = %52
  call void @llvm.lifetime.start.p0(i64 8, ptr %15) #8
  call void @llvm.lifetime.start.p0(i64 8, ptr %16) #8
  %58 = load ptr, ptr %10, align 8, !tbaa !7
  %59 = call i64 @ZSTDv01_getcBlockSize(ptr noundef %58, i64 noundef 3, ptr noundef %15)
  store i64 %59, ptr %16, align 8, !tbaa !3
  %60 = load i64, ptr %16, align 8, !tbaa !3
  %61 = call i32 @ZSTDv01_isError(i64 noundef %60)
  %62 = icmp ne i32 %61, 0
  br i1 %62, label %63, label %65

63:                                               ; preds = %57
  %64 = load i64, ptr %16, align 8, !tbaa !3
  store i64 %64, ptr %6, align 8
  store i32 1, ptr %13, align 4
  br label %85

65:                                               ; preds = %57
  %66 = getelementptr inbounds nuw %struct.blockProperties_t, ptr %15, i32 0, i32 0
  %67 = load i32, ptr %66, align 4, !tbaa !13
  %68 = icmp eq i32 %67, 3
  br i1 %68, label %69, label %74

69:                                               ; preds = %65
  %70 = load ptr, ptr %12, align 8, !tbaa !25
  %71 = getelementptr inbounds nuw %struct.ZSTDv01_Dctx_s, ptr %70, i32 0, i32 5
  store i64 0, ptr %71, align 8, !tbaa !27
  %72 = load ptr, ptr %12, align 8, !tbaa !25
  %73 = getelementptr inbounds nuw %struct.ZSTDv01_Dctx_s, ptr %72, i32 0, i32 7
  store i32 0, ptr %73, align 4, !tbaa !28
  br label %84

74:                                               ; preds = %65
  %75 = load i64, ptr %16, align 8, !tbaa !3
  %76 = load ptr, ptr %12, align 8, !tbaa !25
  %77 = getelementptr inbounds nuw %struct.ZSTDv01_Dctx_s, ptr %76, i32 0, i32 5
  store i64 %75, ptr %77, align 8, !tbaa !27
  %78 = getelementptr inbounds nuw %struct.blockProperties_t, ptr %15, i32 0, i32 0
  %79 = load i32, ptr %78, align 4, !tbaa !13
  %80 = load ptr, ptr %12, align 8, !tbaa !25
  %81 = getelementptr inbounds nuw %struct.ZSTDv01_Dctx_s, ptr %80, i32 0, i32 6
  store i32 %79, ptr %81, align 8, !tbaa !30
  %82 = load ptr, ptr %12, align 8, !tbaa !25
  %83 = getelementptr inbounds nuw %struct.ZSTDv01_Dctx_s, ptr %82, i32 0, i32 7
  store i32 2, ptr %83, align 4, !tbaa !28
  br label %84

84:                                               ; preds = %74, %69
  store i64 0, ptr %6, align 8
  store i32 1, ptr %13, align 4
  br label %85

85:                                               ; preds = %84, %63
  call void @llvm.lifetime.end.p0(i64 8, ptr %16) #8
  call void @llvm.lifetime.end.p0(i64 8, ptr %15) #8
  br label %124

86:                                               ; preds = %52
  call void @llvm.lifetime.start.p0(i64 8, ptr %17) #8
  %87 = load ptr, ptr %12, align 8, !tbaa !25
  %88 = getelementptr inbounds nuw %struct.ZSTDv01_Dctx_s, ptr %87, i32 0, i32 6
  %89 = load i32, ptr %88, align 8, !tbaa !30
  switch i32 %89, label %105 [
    i32 0, label %90
    i32 1, label %97
    i32 2, label %103
    i32 3, label %104
  ]

90:                                               ; preds = %86
  %91 = load ptr, ptr %12, align 8, !tbaa !25
  %92 = load ptr, ptr %8, align 8, !tbaa !7
  %93 = load i64, ptr %9, align 8, !tbaa !3
  %94 = load ptr, ptr %10, align 8, !tbaa !7
  %95 = load i64, ptr %11, align 8, !tbaa !3
  %96 = call i64 @ZSTD_decompressBlock(ptr noundef %91, ptr noundef %92, i64 noundef %93, ptr noundef %94, i64 noundef %95)
  store i64 %96, ptr %17, align 8, !tbaa !3
  br label %106

97:                                               ; preds = %86
  %98 = load ptr, ptr %8, align 8, !tbaa !7
  %99 = load i64, ptr %9, align 8, !tbaa !3
  %100 = load ptr, ptr %10, align 8, !tbaa !7
  %101 = load i64, ptr %11, align 8, !tbaa !3
  %102 = call i64 @ZSTD_copyUncompressedBlock(ptr noundef %98, i64 noundef %99, ptr noundef %100, i64 noundef %101)
  store i64 %102, ptr %17, align 8, !tbaa !3
  br label %106

103:                                              ; preds = %86
  store i64 -1, ptr %6, align 8
  store i32 1, ptr %13, align 4
  br label %123

104:                                              ; preds = %86
  store i64 0, ptr %17, align 8, !tbaa !3
  br label %106

105:                                              ; preds = %86
  store i64 -1, ptr %6, align 8
  store i32 1, ptr %13, align 4
  br label %123

106:                                              ; preds = %104, %97, %90
  %107 = load ptr, ptr %12, align 8, !tbaa !25
  %108 = getelementptr inbounds nuw %struct.ZSTDv01_Dctx_s, ptr %107, i32 0, i32 7
  store i32 1, ptr %108, align 4, !tbaa !28
  %109 = load ptr, ptr %12, align 8, !tbaa !25
  %110 = getelementptr inbounds nuw %struct.ZSTDv01_Dctx_s, ptr %109, i32 0, i32 5
  store i64 3, ptr %110, align 8, !tbaa !27
  %111 = load i64, ptr %17, align 8, !tbaa !3
  %112 = call i32 @ZSTDv01_isError(i64 noundef %111)
  %113 = icmp ne i32 %112, 0
  br i1 %113, label %114, label %116

114:                                              ; preds = %106
  %115 = load i64, ptr %17, align 8, !tbaa !3
  store i64 %115, ptr %6, align 8
  store i32 1, ptr %13, align 4
  br label %123

116:                                              ; preds = %106
  %117 = load ptr, ptr %8, align 8, !tbaa !7
  %118 = load i64, ptr %17, align 8, !tbaa !3
  %119 = getelementptr inbounds nuw i8, ptr %117, i64 %118
  %120 = load ptr, ptr %12, align 8, !tbaa !25
  %121 = getelementptr inbounds nuw %struct.ZSTDv01_Dctx_s, ptr %120, i32 0, i32 3
  store ptr %119, ptr %121, align 8, !tbaa !29
  %122 = load i64, ptr %17, align 8, !tbaa !3
  store i64 %122, ptr %6, align 8
  store i32 1, ptr %13, align 4
  br label %123

123:                                              ; preds = %116, %114, %105, %103
  call void @llvm.lifetime.end.p0(i64 8, ptr %17) #8
  br label %124

124:                                              ; preds = %123, %85, %51, %24
  call void @llvm.lifetime.end.p0(i64 8, ptr %12) #8
  %125 = load i64, ptr %6, align 8
  ret i64 %125
}