; Function Attrs: nofree norecurse nosync nounwind memory(readwrite, inaccessiblemem: none) uwtable
define i64 @ZSTDv01_decompressContinue(ptr noundef captures(none) %0, ptr noundef %1, i64 noundef %2, ptr noundef %3, i64 noundef %4) local_unnamed_addr #1 {
  %6 = getelementptr inbounds nuw i8, ptr %0, i64 10272
  %7 = load i64, ptr %6, align 8, !tbaa !45
  %.not = icmp eq i64 %4, %7
  br i1 %.not, label %8, label %67

8:                                                ; preds = %5
  %9 = getelementptr inbounds nuw i8, ptr %0, i64 10256
  %10 = load ptr, ptr %9, align 8, !tbaa !47
  %.not44 = icmp eq ptr %1, %10
  br i1 %.not44, label %13, label %11

11:                                               ; preds = %8
  %12 = getelementptr inbounds nuw i8, ptr %0, i64 10264
  store ptr %1, ptr %12, align 8, !tbaa !32
  br label %13

13:                                               ; preds = %11, %8
  %14 = getelementptr inbounds nuw i8, ptr %0, i64 10284
  %15 = load i32, ptr %14, align 4, !tbaa !46
  switch i32 %15, label %55 [
    i32 0, label %16
    i32 1, label %35
  ]

16:                                               ; preds = %13
  %17 = load i8, ptr %3, align 1, !tbaa !3
  %18 = zext i8 %17 to i32
  %19 = shl nuw i32 %18, 24
  %20 = getelementptr inbounds nuw i8, ptr %3, i64 1
  %21 = load i8, ptr %20, align 1, !tbaa !3
  %22 = zext i8 %21 to i32
  %23 = shl nuw nsw i32 %22, 16
  %24 = or disjoint i32 %23, %19
  %25 = getelementptr inbounds nuw i8, ptr %3, i64 2
  %26 = load i8, ptr %25, align 1, !tbaa !3
  %27 = zext i8 %26 to i32
  %28 = shl nuw nsw i32 %27, 8
  %29 = or disjoint i32 %24, %28
  %30 = getelementptr inbounds nuw i8, ptr %3, i64 3
  %31 = load i8, ptr %30, align 1, !tbaa !3
  %32 = zext i8 %31 to i32
  %33 = or disjoint i32 %29, %32
  %.not47 = icmp eq i32 %33, -47205090
  br i1 %.not47, label %34, label %67

34:                                               ; preds = %16
  store i32 1, ptr %14, align 4, !tbaa !46
  store i64 3, ptr %6, align 8, !tbaa !45
  br label %67

35:                                               ; preds = %13
  %36 = load i8, ptr %3, align 1, !tbaa !3
  %37 = zext i8 %36 to i32
  %38 = lshr i32 %37, 6
  switch i32 %38, label %39 [
    i32 3, label %ZSTDv01_getcBlockSize.exit
    i32 2, label %52
  ]

39:                                               ; preds = %35
  %40 = shl nuw nsw i32 %37, 16
  %41 = and i32 %40, 458752
  %42 = getelementptr inbounds nuw i8, ptr %3, i64 2
  %43 = load i8, ptr %42, align 1, !tbaa !3
  %44 = zext i8 %43 to i32
  %45 = or disjoint i32 %41, %44
  %46 = getelementptr inbounds nuw i8, ptr %3, i64 1
  %47 = load i8, ptr %46, align 1, !tbaa !3
  %48 = zext i8 %47 to i32
  %49 = shl nuw nsw i32 %48, 8
  %50 = or disjoint i32 %49, %45
  %51 = zext nneg i32 %50 to i64
  br label %52

ZSTDv01_getcBlockSize.exit:                       ; preds = %35
  store i64 0, ptr %6, align 8, !tbaa !45
  br label %54

52:                                               ; preds = %35, %39
  %.0.i.ph = phi i64 [ %51, %39 ], [ 1, %35 ]
  store i64 %.0.i.ph, ptr %6, align 8, !tbaa !45
  %53 = getelementptr inbounds nuw i8, ptr %0, i64 10280
  store i32 %38, ptr %53, align 8, !tbaa !48
  br label %54

54:                                               ; preds = %ZSTDv01_getcBlockSize.exit, %52
  %storemerge = phi i32 [ 2, %52 ], [ 0, %ZSTDv01_getcBlockSize.exit ]
  store i32 %storemerge, ptr %14, align 4, !tbaa !46
  br label %67

55:                                               ; preds = %13
  %56 = getelementptr inbounds nuw i8, ptr %0, i64 10280
  %57 = load i32, ptr %56, align 8, !tbaa !48
  switch i32 %57, label %67 [
    i32 0, label %58
    i32 1, label %60
    i32 3, label %ZSTD_copyUncompressedBlock.exit.thread
  ]

58:                                               ; preds = %55
  %59 = tail call fastcc i64 @ZSTD_decompressBlock(ptr noundef nonnull %0, ptr noundef %1, i64 noundef %2, ptr noundef %3, i64 noundef %4)
  br label %ZSTD_copyUncompressedBlock.exit

60:                                               ; preds = %55
  %61 = icmp ugt i64 %4, %2
  br i1 %61, label %ZSTD_copyUncompressedBlock.exit.thread55, label %62

ZSTD_copyUncompressedBlock.exit.thread55:         ; preds = %60
  store i32 1, ptr %14, align 4, !tbaa !46
  store i64 3, ptr %6, align 8, !tbaa !45
  br label %67

62:                                               ; preds = %60
  %.not.i = icmp eq i64 %4, 0
  br i1 %.not.i, label %ZSTD_copyUncompressedBlock.exit.thread, label %63

63:                                               ; preds = %62
  tail call void @llvm.memcpy.p0.p0.i64(ptr align 1 %1, ptr readonly align 1 %3, i64 %4, i1 false)
  br label %ZSTD_copyUncompressedBlock.exit

ZSTD_copyUncompressedBlock.exit.thread:           ; preds = %55, %62
  store i32 1, ptr %14, align 4, !tbaa !46
  store i64 3, ptr %6, align 8, !tbaa !45
  br label %65

ZSTD_copyUncompressedBlock.exit:                  ; preds = %63, %58
  %.0 = phi i64 [ %59, %58 ], [ %4, %63 ]
  store i32 1, ptr %14, align 4, !tbaa !46
  store i64 3, ptr %6, align 8, !tbaa !45
  %64 = icmp ult i64 %.0, -119
  br i1 %64, label %65, label %67

65:                                               ; preds = %ZSTD_copyUncompressedBlock.exit.thread, %ZSTD_copyUncompressedBlock.exit
  %.054 = phi i64 [ 0, %ZSTD_copyUncompressedBlock.exit.thread ], [ %.0, %ZSTD_copyUncompressedBlock.exit ]
  %66 = getelementptr inbounds nuw i8, ptr %1, i64 %.054
  store ptr %66, ptr %9, align 8, !tbaa !47
  br label %67

67:                                               ; preds = %ZSTD_copyUncompressedBlock.exit.thread55, %65, %55, %ZSTD_copyUncompressedBlock.exit, %34, %16, %5, %54
  %.040 = phi i64 [ 0, %54 ], [ -72, %5 ], [ 0, %34 ], [ -10, %16 ], [ %.054, %65 ], [ -1, %55 ], [ %.0, %ZSTD_copyUncompressedBlock.exit ], [ -70, %ZSTD_copyUncompressedBlock.exit.thread55 ]
  ret i64 %.040
}